target datalayout = "e-m:e-p270:32:32-p271:32:32-p272:64:64-i64:64-i128:128-f80:128-n8:16:32:64-S128"
target triple = "x86_64-pc-linux-gnu"

@.str.68 = private unnamed_addr constant [36 x i8] c"%s creates a new PostgreSQL role.\0A\0A\00", align 1
@.str.69 = private unnamed_addr constant [8 x i8] c"Usage:\0A\00", align 1
@.str.70 = private unnamed_addr constant [29 x i8] c"  %s [OPTION]... [ROLENAME]\0A\00", align 1
@.str.71 = private unnamed_addr constant [11 x i8] c"\0AOptions:\0A\00", align 1
@.str.72 = private unnamed_addr constant [109 x i8] c"  -a, --with-admin=ROLE     ROLE will be a member of new role with admin\0A                            option\0A\00", align 1
@.str.73 = private unnamed_addr constant [75 x i8] c"  -c, --connection-limit=N  connection limit for role (default: no limit)\0A\00", align 1
@.str.74 = private unnamed_addr constant [59 x i8] c"  -d, --createdb            role can create new databases\0A\00", align 1
@.str.75 = private unnamed_addr constant [68 x i8] c"  -D, --no-createdb         role cannot create databases (default)\0A\00", align 1
@.str.76 = private unnamed_addr constant [72 x i8] c"  -e, --echo                show the commands being sent to the server\0A\00", align 1
@.str.77 = private unnamed_addr constant [63 x i8] c"  -g, --member-of=ROLE      new role will be a member of ROLE\0A\00", align 1
@.str.78 = private unnamed_addr constant [63 x i8] c"  --role=ROLE               (same as --member-of, deprecated)\0A\00", align 1
@.str.79 = private unnamed_addr constant [119 x i8] c"  -i, --inherit             role inherits privileges of roles it is a\0A                            member of (default)\0A\00", align 1
@.str.80 = private unnamed_addr constant [62 x i8] c"  -I, --no-inherit          role does not inherit privileges\0A\00", align 1
@.str.81 = private unnamed_addr constant [54 x i8] c"  -l, --login               role can login (default)\0A\00", align 1
@.str.82 = private unnamed_addr constant [47 x i8] c"  -L, --no-login            role cannot login\0A\00", align 1
@.str.83 = private unnamed_addr constant [63 x i8] c"  -m, --with-member=ROLE    ROLE will be a member of new role\0A\00", align 1
@.str.84 = private unnamed_addr constant [59 x i8] c"  -P, --pwprompt            assign a password to new role\0A\00", align 1
@.str.85 = private unnamed_addr constant [55 x i8] c"  -r, --createrole          role can create new roles\0A\00", align 1
@.str.86 = private unnamed_addr constant [64 x i8] c"  -R, --no-createrole       role cannot create roles (default)\0A\00", align 1
@.str.87 = private unnamed_addr constant [52 x i8] c"  -s, --superuser           role will be superuser\0A\00", align 1
@.str.88 = private unnamed_addr constant [66 x i8] c"  -S, --no-superuser        role will not be superuser (default)\0A\00", align 1
@.str.89 = private unnamed_addr constant [102 x i8] c"  -v, --valid-until=TIMESTAMP\0A                            password expiration date and time for role\0A\00", align 1
@.str.90 = private unnamed_addr constant [67 x i8] c"  -V, --version             output version information, then exit\0A\00", align 1
@.str.91 = private unnamed_addr constant [128 x i8] c"  --interactive             prompt for missing role name and attributes rather\0A                            than using defaults\0A\00", align 1
@.str.92 = private unnamed_addr constant [77 x i8] c"  --bypassrls               role can bypass row-level security (RLS) policy\0A\00", align 1
@.str.93 = private unnamed_addr constant [118 x i8] c"  --no-bypassrls            role cannot bypass row-level security (RLS) policy\0A                            (default)\0A\00", align 1
@.str.94 = private unnamed_addr constant [59 x i8] c"  --replication             role can initiate replication\0A\00", align 1
@.str.95 = private unnamed_addr constant [72 x i8] c"  --no-replication          role cannot initiate replication (default)\0A\00", align 1
@.str.96 = private unnamed_addr constant [55 x i8] c"  -?, --help                show this help, then exit\0A\00", align 1
@.str.97 = private unnamed_addr constant [22 x i8] c"\0AConnection options:\0A\00", align 1
@.str.98 = private unnamed_addr constant [70 x i8] c"  -h, --host=HOSTNAME       database server host or socket directory\0A\00", align 1
@.str.99 = private unnamed_addr constant [50 x i8] c"  -p, --port=PORT           database server port\0A\00", align 1
@.str.100 = private unnamed_addr constant [77 x i8] c"  -U, --username=USERNAME   user name to connect as (not the one to create)\0A\00", align 1
@.str.101 = private unnamed_addr constant [55 x i8] c"  -w, --no-password         never prompt for password\0A\00", align 1
@.str.102 = private unnamed_addr constant [51 x i8] c"  -W, --password            force password prompt\0A\00", align 1
@.str.103 = private unnamed_addr constant [23 x i8] c"\0AReport bugs to <%s>.\0A\00", align 1
@.str.104 = private unnamed_addr constant [32 x i8] c"pgsql-bugs@lists.postgresql.org\00", align 1
@.str.105 = private unnamed_addr constant [20 x i8] c"%s home page: <%s>\0A\00", align 1
@.str.106 = private unnamed_addr constant [11 x i8] c"PostgreSQL\00", align 1
@.str.107 = private unnamed_addr constant [28 x i8] c"https://www.postgresql.org/\00", align 1

; Function Attrs: nounwind uwtable
define internal void @help(ptr noundef %0) #0 {
  %2 = alloca ptr, align 8
  store ptr %0, ptr %2, align 8
  %3 = load ptr, ptr %2, align 8
  %4 = call i32 (ptr, ...) @pg_printf(ptr noundef @.str.68, ptr noundef %3)
  %5 = call i32 (ptr, ...) @pg_printf(ptr noundef @.str.69)
  %6 = load ptr, ptr %2, align 8
  %7 = call i32 (ptr, ...) @pg_printf(ptr noundef @.str.70, ptr noundef %6)
  %8 = call i32 (ptr, ...) @pg_printf(ptr noundef @.str.71)
  %9 = call i32 (ptr, ...) @pg_printf(ptr noundef @.str.72)
  %10 = call i32 (ptr, ...) @pg_printf(ptr noundef @.str.73)
  %11 = call i32 (ptr, ...) @pg_printf(ptr noundef @.str.74)
  %12 = call i32 (ptr, ...) @pg_printf(ptr noundef @.str.75)
  %13 = call i32 (ptr, ...) @pg_printf(ptr noundef @.str.76)
  %14 = call i32 (ptr, ...) @pg_printf(ptr noundef @.str.77)
  %15 = call i32 (ptr, ...) @pg_printf(ptr noundef @.str.78)
  %16 = call i32 (ptr, ...) @pg_printf(ptr noundef @.str.79)
  %17 = call i32 (ptr, ...) @pg_printf(ptr noundef @.str.80)
  %18 = call i32 (ptr, ...) @pg_printf(ptr noundef @.str.81)
  %19 = call i32 (ptr, ...) @pg_printf(ptr noundef @.str.82)
  %20 = call i32 (ptr, ...) @pg_printf(ptr noundef @.str.83)
  %21 = call i32 (ptr, ...) @pg_printf(ptr noundef @.str.84)
  %22 = call i32 (ptr, ...) @pg_printf(ptr noundef @.str.85)
  %23 = call i32 (ptr, ...) @pg_printf(ptr noundef @.str.86)
  %24 = call i32 (ptr, ...) @pg_printf(ptr noundef @.str.87)
  %25 = call i32 (ptr, ...) @pg_printf(ptr noundef @.str.88)
  %26 = call i32 (ptr, ...) @pg_printf(ptr noundef @.str.89)
  %27 = call i32 (ptr, ...) @pg_printf(ptr noundef @.str.90)
  %28 = call i32 (ptr, ...) @pg_printf(ptr noundef @.str.91)
  %29 = call i32 (ptr, ...) @pg_printf(ptr noundef @.str.92)
  %30 = call i32 (ptr, ...) @pg_printf(ptr noundef @.str.93)
  %31 = call i32 (ptr, ...) @pg_printf(ptr noundef @.str.94)
  %32 = call i32 (ptr, ...) @pg_printf(ptr noundef @.str.95)
  %33 = call i32 (ptr, ...) @pg_printf(ptr noundef @.str.96)
  %34 = call i32 (ptr, ...) @pg_printf(ptr noundef @.str.97)
  %35 = call i32 (ptr, ...) @pg_printf(ptr noundef @.str.98)
  %36 = call i32 (ptr, ...) @pg_printf(ptr noundef @.str.99)
  %37 = call i32 (ptr, ...) @pg_printf(ptr noundef @.str.100)
  %38 = call i32 (ptr, ...) @pg_printf(ptr noundef @.str.101)
  %39 = call i32 (ptr, ...) @pg_printf(ptr noundef @.str.102)
  %40 = call i32 (ptr, ...) @pg_printf(ptr noundef @.str.103, ptr noundef @.str.104)
  %41 = call i32 (ptr, ...) @pg_printf(ptr noundef @.str.105, ptr noundef @.str.106, ptr noundef @.str.107)
  ret void
}