; Function Attrs: nounwind uwtable
define internal void @help(ptr noundef %0) #4 {
  %2 = tail call i32 (ptr, ...) @pg_printf(ptr noundef nonnull @.str.68, ptr noundef %0) #10
  %3 = tail call i32 (ptr, ...) @pg_printf(ptr noundef nonnull @.str.69) #10
  %4 = tail call i32 (ptr, ...) @pg_printf(ptr noundef nonnull @.str.70, ptr noundef %0) #10
  %5 = tail call i32 (ptr, ...) @pg_printf(ptr noundef nonnull @.str.71) #10
  %6 = tail call i32 (ptr, ...) @pg_printf(ptr noundef nonnull @.str.72) #10
  %7 = tail call i32 (ptr, ...) @pg_printf(ptr noundef nonnull @.str.73) #10
  %8 = tail call i32 (ptr, ...) @pg_printf(ptr noundef nonnull @.str.74) #10
  %9 = tail call i32 (ptr, ...) @pg_printf(ptr noundef nonnull @.str.75) #10
  %10 = tail call i32 (ptr, ...) @pg_printf(ptr noundef nonnull @.str.76) #10
  %11 = tail call i32 (ptr, ...) @pg_printf(ptr noundef nonnull @.str.77) #10
  %12 = tail call i32 (ptr, ...) @pg_printf(ptr noundef nonnull @.str.78) #10
  %13 = tail call i32 (ptr, ...) @pg_printf(ptr noundef nonnull @.str.79) #10
  %14 = tail call i32 (ptr, ...) @pg_printf(ptr noundef nonnull @.str.80) #10
  %15 = tail call i32 (ptr, ...) @pg_printf(ptr noundef nonnull @.str.81) #10
  %16 = tail call i32 (ptr, ...) @pg_printf(ptr noundef nonnull @.str.82) #10
  %17 = tail call i32 (ptr, ...) @pg_printf(ptr noundef nonnull @.str.83) #10
  %18 = tail call i32 (ptr, ...) @pg_printf(ptr noundef nonnull @.str.84) #10
  %19 = tail call i32 (ptr, ...) @pg_printf(ptr noundef nonnull @.str.85) #10
  %20 = tail call i32 (ptr, ...) @pg_printf(ptr noundef nonnull @.str.86) #10
  %21 = tail call i32 (ptr, ...) @pg_printf(ptr noundef nonnull @.str.87) #10
  %22 = tail call i32 (ptr, ...) @pg_printf(ptr noundef nonnull @.str.88) #10
  %23 = tail call i32 (ptr, ...) @pg_printf(ptr noundef nonnull @.str.89) #10
  %24 = tail call i32 (ptr, ...) @pg_printf(ptr noundef nonnull @.str.90) #10
  %25 = tail call i32 (ptr, ...) @pg_printf(ptr noundef nonnull @.str.91) #10
  %26 = tail call i32 (ptr, ...) @pg_printf(ptr noundef nonnull @.str.92) #10
  %27 = tail call i32 (ptr, ...) @pg_printf(ptr noundef nonnull @.str.93) #10
  %28 = tail call i32 (ptr, ...) @pg_printf(ptr noundef nonnull @.str.94) #10
  %29 = tail call i32 (ptr, ...) @pg_printf(ptr noundef nonnull @.str.95) #10
  %30 = tail call i32 (ptr, ...) @pg_printf(ptr noundef nonnull @.str.96) #10
  %31 = tail call i32 (ptr, ...) @pg_printf(ptr noundef nonnull @.str.97) #10
  %32 = tail call i32 (ptr, ...) @pg_printf(ptr noundef nonnull @.str.98) #10
  %33 = tail call i32 (ptr, ...) @pg_printf(ptr noundef nonnull @.str.99) #10
  %34 = tail call i32 (ptr, ...) @pg_printf(ptr noundef nonnull @.str.100) #10
  %35 = tail call i32 (ptr, ...) @pg_printf(ptr noundef nonnull @.str.101) #10
  %36 = tail call i32 (ptr, ...) @pg_printf(ptr noundef nonnull @.str.102) #10
  %37 = tail call i32 (ptr, ...) @pg_printf(ptr noundef nonnull @.str.103, ptr noundef nonnull @.str.104) #10
  %38 = tail call i32 (ptr, ...) @pg_printf(ptr noundef nonnull @.str.105, ptr noundef nonnull @.str.106, ptr noundef nonnull @.str.107) #10
  ret void
}